; Function Attrs: null_pointer_is_valid sspstrong uwtable
define hidden i32 @samr_dissect_struct_userPwdChangeFailureInformation(ptr noundef %0, i32 noundef %1, ptr noundef %2, ptr noundef %3, ptr noundef %4, ptr noundef %5, i32 noundef %6, i32 %7) local_unnamed_addr #0 {
  %9 = alloca i32, align 4
  %10 = getelementptr inbounds nuw i8, ptr %4, i64 64
  %11 = load ptr, ptr %10, align 8
  %12 = getelementptr inbounds nuw i8, ptr %11, i64 96
  %13 = load i32, ptr %12, align 8
  %14 = and i32 %13, 1
  %.not = icmp eq i32 %14, 0
  %15 = getelementptr inbounds nuw i8, ptr %4, i64 25
  %16 = load i8, ptr %15, align 1, !range !6, !noundef !7
  %17 = trunc nuw i8 %16 to i1
  br i1 %.not, label %23, label %18

18:                                               ; preds = %8
  %19 = and i32 %1, 7
  %.not41 = icmp eq i32 %19, 0
  %or.cond = or i1 %.not41, %17
  br i1 %or.cond, label %28, label %20

20:                                               ; preds = %18
  %21 = and i32 %1, -8
  %22 = add i32 %21, 8
  br label %28

23:                                               ; preds = %8
  %24 = and i32 %1, 3
  %.not40 = icmp eq i32 %24, 0
  %or.cond45 = or i1 %.not40, %17
  br i1 %or.cond45, label %28, label %25

25:                                               ; preds = %23
  %26 = and i32 %1, -4
  %27 = add i32 %26, 4
  br label %28

28:                                               ; preds = %23, %25, %18, %20
  %.0 = phi i32 [ %1, %18 ], [ %22, %20 ], [ %1, %23 ], [ %27, %25 ]
  %.not42 = icmp eq ptr %3, null
  br i1 %.not42, label %33, label %29

29:                                               ; preds = %28
  %30 = tail call ptr @proto_tree_add_item(ptr noundef nonnull %3, i32 noundef %6, ptr noundef %0, i32 noundef %.0, i32 noundef -1, i32 noundef 0)
  %31 = load i32, ptr @ett_samr_userPwdChangeFailureInformation, align 4
  %32 = tail call ptr @proto_item_add_subtree(ptr noundef %30, i32 noundef %31)
  br label %33

33:                                               ; preds = %29, %28
  %.038 = phi ptr [ %30, %29 ], [ null, %28 ]
  %.037 = phi ptr [ %32, %29 ], [ null, %28 ]
  %34 = load i32, ptr @hf_samr_userPwdChangeFailureInformation_extendedFailureReason, align 4
  call void @llvm.lifetime.start.p0(i64 4, ptr nonnull %9) #5
  store i32 0, ptr %9, align 4
  %35 = call i32 @dissect_ndr_uint32(ptr noundef %0, i32 noundef %.0, ptr noundef %2, ptr noundef %.037, ptr noundef %4, ptr noundef %5, i32 noundef %34, ptr noundef nonnull %9)
  call void @llvm.lifetime.end.p0(i64 4, ptr nonnull %9) #5
  %36 = load i32, ptr @hf_samr_userPwdChangeFailureInformation_filterModuleName, align 4
  %37 = call i32 @dissect_ndr_lsa_String(ptr noundef %0, i32 noundef %35, ptr noundef %2, ptr noundef %.037, ptr noundef %4, ptr noundef %5, i32 noundef 0, i32 noundef %36)
  %38 = sub i32 %37, %.0
  call void @proto_item_set_len(ptr noundef %.038, i32 noundef %38)
  %39 = load ptr, ptr %10, align 8
  %40 = getelementptr inbounds nuw i8, ptr %39, i64 96
  %41 = load i32, ptr %40, align 8
  %42 = and i32 %41, 1
  %.not43 = icmp eq i32 %42, 0
  br i1 %.not43, label %51, label %43

43:                                               ; preds = %33
  %44 = getelementptr inbounds nuw i8, ptr %4, i64 25
  %45 = load i8, ptr %44, align 1, !range !6, !noundef !7
  %46 = trunc nuw i8 %45 to i1
  %47 = and i32 %37, 7
  %.not44 = icmp eq i32 %47, 0
  %or.cond46 = or i1 %.not44, %46
  br i1 %or.cond46, label %51, label %48

48:                                               ; preds = %43
  %49 = and i32 %37, -8
  %50 = add i32 %49, 8
  br label %51

51:                                               ; preds = %48, %43, %33
  %.1 = phi i32 [ %37, %43 ], [ %50, %48 ], [ %37, %33 ]
  ret i32 %.1
}